target datalayout = "e-m:e-p270:32:32-p271:32:32-p272:64:64-i64:64-i128:128-f80:128-n8:16:32:64-S128"
target triple = "x86_64-pc-linux-gnu"

%struct.register_srt = type { i32, ptr, i32, ptr, ptr, ptr, ptr }

@registered_srt_tables = internal global ptr null, align 8
@.str.1 = private unnamed_addr constant [29 x i8] c"%s:%u: failed assertion \22%s\22\00", align 1
@.str.2 = private unnamed_addr constant [17 x i8] c"epan/srt_table.c\00", align 1
@.str.3 = private unnamed_addr constant [8 x i8] c"init_cb\00", align 1
@.str.4 = private unnamed_addr constant [16 x i8] c"srt_packet_func\00", align 1

; Function Attrs: null_pointer_is_valid sspstrong uwtable
define void @register_srt_table(i32 noundef %0, ptr noundef %1, i32 noundef %2, ptr noundef %3, ptr noundef %4, ptr noundef %5) #1 {
  %7 = alloca i32, align 4
  %8 = alloca ptr, align 8
  %9 = alloca i32, align 4
  %10 = alloca ptr, align 8
  %11 = alloca ptr, align 8
  %12 = alloca ptr, align 8
  %13 = alloca ptr, align 8
  store i32 %0, ptr %7, align 4
  store ptr %1, ptr %8, align 8
  store i32 %2, ptr %9, align 4
  store ptr %3, ptr %10, align 8
  store ptr %4, ptr %11, align 8
  store ptr %5, ptr %12, align 8
  call void @llvm.lifetime.start.p0(i64 8, ptr %13) #11
  %14 = load ptr, ptr %11, align 8
  %15 = icmp ne ptr %14, null
  br i1 %15, label %16, label %17

16:                                               ; preds = %6
  br label %19

17:                                               ; preds = %6
  call void (ptr, ...) @proto_report_dissector_bug(ptr noundef @.str.1, ptr noundef @.str.2, i32 noundef 174, ptr noundef @.str.3) #13
  unreachable

18:                                               ; No predecessors!
  br label %19

19:                                               ; preds = %18, %16
  %20 = load ptr, ptr %10, align 8
  %21 = icmp ne ptr %20, null
  br i1 %21, label %22, label %23

22:                                               ; preds = %19
  br label %25

23:                                               ; preds = %19
  call void (ptr, ...) @proto_report_dissector_bug(ptr noundef @.str.1, ptr noundef @.str.2, i32 noundef 175, ptr noundef @.str.4) #13
  unreachable

24:                                               ; No predecessors!
  br label %25

25:                                               ; preds = %24, %22
  %26 = call ptr @wmem_epan_scope()
  %27 = call noalias ptr @wmem_alloc(ptr noundef %26, i64 noundef 56) #14
  store ptr %27, ptr %13, align 8
  %28 = load i32, ptr %7, align 4
  %29 = load ptr, ptr %13, align 8
  %30 = getelementptr inbounds nuw %struct.register_srt, ptr %29, i32 0, i32 0
  store i32 %28, ptr %30, align 8
  %31 = load ptr, ptr %8, align 8
  %32 = icmp ne ptr %31, null
  br i1 %32, label %33, label %37

33:                                               ; preds = %25
  %34 = load ptr, ptr %8, align 8
  %35 = load ptr, ptr %13, align 8
  %36 = getelementptr inbounds nuw %struct.register_srt, ptr %35, i32 0, i32 1
  store ptr %34, ptr %36, align 8
  br label %42

37:                                               ; preds = %25
  %38 = load i32, ptr %7, align 4
  %39 = call ptr @proto_get_protocol_filter_name(i32 noundef %38)
  %40 = load ptr, ptr %13, align 8
  %41 = getelementptr inbounds nuw %struct.register_srt, ptr %40, i32 0, i32 1
  store ptr %39, ptr %41, align 8
  br label %42

42:                                               ; preds = %37, %33
  %43 = load i32, ptr %9, align 4
  %44 = load ptr, ptr %13, align 8
  %45 = getelementptr inbounds nuw %struct.register_srt, ptr %44, i32 0, i32 2
  store i32 %43, ptr %45, align 8
  %46 = load ptr, ptr %10, align 8
  %47 = load ptr, ptr %13, align 8
  %48 = getelementptr inbounds nuw %struct.register_srt, ptr %47, i32 0, i32 3
  store ptr %46, ptr %48, align 8
  %49 = load ptr, ptr %11, align 8
  %50 = load ptr, ptr %13, align 8
  %51 = getelementptr inbounds nuw %struct.register_srt, ptr %50, i32 0, i32 4
  store ptr %49, ptr %51, align 8
  %52 = load ptr, ptr %12, align 8
  %53 = load ptr, ptr %13, align 8
  %54 = getelementptr inbounds nuw %struct.register_srt, ptr %53, i32 0, i32 5
  store ptr %52, ptr %54, align 8
  %55 = load ptr, ptr %13, align 8
  %56 = getelementptr inbounds nuw %struct.register_srt, ptr %55, i32 0, i32 6
  store ptr null, ptr %56, align 8
  %57 = load ptr, ptr @registered_srt_tables, align 8
  %58 = icmp eq ptr %57, null
  br i1 %58, label %59, label %62

59:                                               ; preds = %42
  %60 = call ptr @wmem_epan_scope()
  %61 = call noalias ptr @wmem_tree_new(ptr noundef %60)
  store ptr %61, ptr @registered_srt_tables, align 8
  br label %62

62:                                               ; preds = %59, %42
  %63 = load ptr, ptr @registered_srt_tables, align 8
  %64 = load i32, ptr %7, align 4
  %65 = call ptr @proto_get_protocol_filter_name(i32 noundef %64)
  %66 = load ptr, ptr %13, align 8
  call void @wmem_tree_insert_string(ptr noundef %63, ptr noundef %65, ptr noundef %66, i32 noundef 0)
  call void @llvm.lifetime.end.p0(i64 8, ptr %13) #11
  ret void
}