; Function Attrs: null_pointer_is_valid sspstrong uwtable
define void @register_srt_table(i32 noundef %0, ptr noundef %1, i32 noundef %2, ptr noundef %3, ptr noundef %4, ptr noundef %5) local_unnamed_addr #2 {
  %.not = icmp eq ptr %4, null
  br i1 %.not, label %7, label %8

7:                                                ; preds = %6
  tail call void (ptr, ...) @proto_report_dissector_bug(ptr noundef nonnull @.str.1, ptr noundef nonnull @.str.2, i32 noundef 174, ptr noundef nonnull @.str.3) #12
  unreachable

8:                                                ; preds = %6
  %.not21 = icmp eq ptr %3, null
  br i1 %.not21, label %9, label %10

9:                                                ; preds = %8
  tail call void (ptr, ...) @proto_report_dissector_bug(ptr noundef nonnull @.str.1, ptr noundef nonnull @.str.2, i32 noundef 175, ptr noundef nonnull @.str.4) #12
  unreachable

10:                                               ; preds = %8
  %11 = tail call ptr @wmem_epan_scope()
  %12 = tail call noalias dereferenceable_or_null(56) ptr @wmem_alloc(ptr noundef %11, i64 noundef 56) #13
  store i32 %0, ptr %12, align 8
  %.not22 = icmp eq ptr %1, null
  br i1 %.not22, label %13, label %15

13:                                               ; preds = %10
  %14 = tail call ptr @proto_get_protocol_filter_name(i32 noundef %0)
  br label %15

15:                                               ; preds = %10, %13
  %.sink = phi ptr [ %14, %13 ], [ %1, %10 ]
  %16 = getelementptr inbounds nuw i8, ptr %12, i64 8
  store ptr %.sink, ptr %16, align 8
  %17 = getelementptr inbounds nuw i8, ptr %12, i64 16
  store i32 %2, ptr %17, align 8
  %18 = getelementptr inbounds nuw i8, ptr %12, i64 24
  store ptr %3, ptr %18, align 8
  %19 = getelementptr inbounds nuw i8, ptr %12, i64 32
  store ptr %4, ptr %19, align 8
  %20 = getelementptr inbounds nuw i8, ptr %12, i64 40
  store ptr %5, ptr %20, align 8
  %21 = getelementptr inbounds nuw i8, ptr %12, i64 48
  store ptr null, ptr %21, align 8
  %22 = load ptr, ptr @registered_srt_tables, align 8
  %23 = icmp eq ptr %22, null
  br i1 %23, label %24, label %27

24:                                               ; preds = %15
  %25 = tail call ptr @wmem_epan_scope()
  %26 = tail call noalias ptr @wmem_tree_new(ptr noundef %25)
  store ptr %26, ptr @registered_srt_tables, align 8
  br label %27

27:                                               ; preds = %24, %15
  %28 = phi ptr [ %26, %24 ], [ %22, %15 ]
  %29 = tail call ptr @proto_get_protocol_filter_name(i32 noundef %0)
  tail call void @wmem_tree_insert_string(ptr noundef %28, ptr noundef %29, ptr noundef %12, i32 noundef 0)
  ret void
}